target datalayout = "e-m:e-p270:32:32-p271:32:32-p272:64:64-i64:64-i128:128-f80:128-n8:16:32:64-S128"
target triple = "x86_64-pc-linux-gnu"

%struct._ir_ctx = type { ptr, i32, i32, i32, i32, i32, i32, i32, i32, i32, i32, %struct._ir_insn, ptr, ptr, ptr, i32, i32, i32, ptr, ptr, ptr, ptr, ptr, ptr, i32, i32, i64, i32, i32, i32, i64, i32, i32, i32, i32, ptr, ptr, ptr, ptr, ptr, ptr, %union.anon.13, ptr, i32, i32, i32, i64, i32, i32, i32, ptr, ptr, ptr, ptr, %struct._ir_strtab, [61 x i32], [14 x i32] }
%struct._ir_insn = type { %struct.anon, %union.anon.5 }
%struct.anon = type { %union.anon, %union.anon.4 }
%union.anon = type { i32 }
%union.anon.4 = type { i32 }
%union.anon.5 = type { %union._ir_val }
%union._ir_val = type { double }
%union.anon.13 = type { ptr }
%struct._ir_strtab = type { ptr, i32, i32, i32, i32, ptr, i32, i32 }
%struct.anon.0 = type { %union.anon.1, %union.anon.3 }
%union.anon.1 = type { i16 }
%union.anon.3 = type { i16 }
%struct.anon.2 = type { i8, i8 }
%struct._ir_use_list = type { i32, i32 }
%struct.anon.6 = type { i32, i32 }
%struct.anon.7 = type { %union.anon.8, i32 }
%union.anon.8 = type { i32 }

; Function Attrs: nounwind uwtable
define internal zeroext i1 @ir_may_promote_f2d(ptr noundef %0, i32 noundef %1) #0 {
  %3 = alloca i1, align 1
  %4 = alloca ptr, align 8
  %5 = alloca i32, align 4
  %6 = alloca ptr, align 8
  %7 = alloca i32, align 4
  store ptr %0, ptr %4, align 8, !tbaa !4
  store i32 %1, ptr %5, align 4, !tbaa !33
  call void @llvm.lifetime.start.p0(i64 8, ptr %6) #10
  %8 = load ptr, ptr %4, align 8, !tbaa !4
  %9 = getelementptr inbounds nuw %struct._ir_ctx, ptr %8, i32 0, i32 0
  %10 = load ptr, ptr %9, align 8, !tbaa !45
  %11 = load i32, ptr %5, align 4, !tbaa !33
  %12 = sext i32 %11 to i64
  %13 = getelementptr inbounds %struct._ir_insn, ptr %10, i64 %12
  store ptr %13, ptr %6, align 8, !tbaa !31
  %14 = load i32, ptr %5, align 4, !tbaa !33
  %15 = icmp slt i32 %14, 0
  br i1 %15, label %16, label %57

16:                                               ; preds = %2
  %17 = load ptr, ptr %6, align 8, !tbaa !31
  %18 = getelementptr inbounds nuw %struct._ir_insn, ptr %17, i32 0, i32 0
  %19 = getelementptr inbounds nuw %struct.anon, ptr %18, i32 0, i32 0
  %20 = getelementptr inbounds nuw %struct.anon.0, ptr %19, i32 0, i32 0
  %21 = getelementptr inbounds nuw %struct.anon.2, ptr %20, i32 0, i32 0
  %22 = load i8, ptr %21, align 8, !tbaa !46
  %23 = zext i8 %22 to i32
  %24 = icmp eq i32 %23, 68
  br i1 %24, label %55, label %25

25:                                               ; preds = %16
  %26 = load ptr, ptr %6, align 8, !tbaa !31
  %27 = getelementptr inbounds nuw %struct._ir_insn, ptr %26, i32 0, i32 0
  %28 = getelementptr inbounds nuw %struct.anon, ptr %27, i32 0, i32 0
  %29 = getelementptr inbounds nuw %struct.anon.0, ptr %28, i32 0, i32 0
  %30 = getelementptr inbounds nuw %struct.anon.2, ptr %29, i32 0, i32 0
  %31 = load i8, ptr %30, align 8, !tbaa !46
  %32 = zext i8 %31 to i32
  %33 = icmp eq i32 %32, 67
  br i1 %33, label %55, label %34

34:                                               ; preds = %25
  %35 = load ptr, ptr %6, align 8, !tbaa !31
  %36 = getelementptr inbounds nuw %struct._ir_insn, ptr %35, i32 0, i32 0
  %37 = getelementptr inbounds nuw %struct.anon, ptr %36, i32 0, i32 0
  %38 = getelementptr inbounds nuw %struct.anon.0, ptr %37, i32 0, i32 0
  %39 = getelementptr inbounds nuw %struct.anon.2, ptr %38, i32 0, i32 0
  %40 = load i8, ptr %39, align 8, !tbaa !46
  %41 = zext i8 %40 to i32
  %42 = icmp eq i32 %41, 66
  br i1 %42, label %55, label %43

43:                                               ; preds = %34
  %44 = load ptr, ptr %6, align 8, !tbaa !31
  %45 = getelementptr inbounds nuw %struct._ir_insn, ptr %44, i32 0, i32 1
  %46 = getelementptr inbounds nuw %struct.anon.7, ptr %45, i32 0, i32 0
  %47 = load float, ptr %46, align 8, !tbaa !46
  %48 = load ptr, ptr %6, align 8, !tbaa !31
  %49 = getelementptr inbounds nuw %struct._ir_insn, ptr %48, i32 0, i32 1
  %50 = getelementptr inbounds nuw %struct.anon.7, ptr %49, i32 0, i32 0
  %51 = load float, ptr %50, align 8, !tbaa !46
  %52 = fpext float %51 to double
  %53 = fptrunc double %52 to float
  %54 = fcmp oeq float %47, %53
  br label %55

55:                                               ; preds = %43, %34, %25, %16
  %56 = phi i1 [ false, %34 ], [ false, %25 ], [ false, %16 ], [ %54, %43 ]
  store i1 %56, ptr %3, align 1
  store i32 1, ptr %7, align 4
  br label %124

57:                                               ; preds = %2
  %58 = load ptr, ptr %6, align 8, !tbaa !31
  %59 = getelementptr inbounds nuw %struct._ir_insn, ptr %58, i32 0, i32 0
  %60 = getelementptr inbounds nuw %struct.anon, ptr %59, i32 0, i32 0
  %61 = getelementptr inbounds nuw %struct.anon.0, ptr %60, i32 0, i32 0
  %62 = getelementptr inbounds nuw %struct.anon.2, ptr %61, i32 0, i32 0
  %63 = load i8, ptr %62, align 8, !tbaa !46
  %64 = zext i8 %63 to i32
  switch i32 %64, label %121 [
    i32 37, label %65
    i32 35, label %66
    i32 29, label %76
    i32 30, label %76
    i32 24, label %95
    i32 25, label %95
    i32 26, label %95
    i32 56, label %95
    i32 57, label %95
  ]

65:                                               ; preds = %57
  store i1 true, ptr %3, align 1
  store i32 1, ptr %7, align 4
  br label %124

66:                                               ; preds = %57
  %67 = load ptr, ptr %4, align 8, !tbaa !4
  %68 = getelementptr inbounds nuw %struct._ir_ctx, ptr %67, i32 0, i32 13
  %69 = load ptr, ptr %68, align 8, !tbaa !47
  %70 = load i32, ptr %5, align 4, !tbaa !33
  %71 = sext i32 %70 to i64
  %72 = getelementptr inbounds %struct._ir_use_list, ptr %69, i64 %71
  %73 = getelementptr inbounds nuw %struct._ir_use_list, ptr %72, i32 0, i32 1
  %74 = load i32, ptr %73, align 4, !tbaa !48
  %75 = icmp eq i32 %74, 1
  store i1 %75, ptr %3, align 1
  store i32 1, ptr %7, align 4
  br label %124

76:                                               ; preds = %57, %57
  %77 = load ptr, ptr %4, align 8, !tbaa !4
  %78 = getelementptr inbounds nuw %struct._ir_ctx, ptr %77, i32 0, i32 13
  %79 = load ptr, ptr %78, align 8, !tbaa !47
  %80 = load i32, ptr %5, align 4, !tbaa !33
  %81 = sext i32 %80 to i64
  %82 = getelementptr inbounds %struct._ir_use_list, ptr %79, i64 %81
  %83 = getelementptr inbounds nuw %struct._ir_use_list, ptr %82, i32 0, i32 1
  %84 = load i32, ptr %83, align 4, !tbaa !48
  %85 = icmp eq i32 %84, 1
  br i1 %85, label %86, label %93

86:                                               ; preds = %76
  %87 = load ptr, ptr %4, align 8, !tbaa !4
  %88 = load ptr, ptr %6, align 8, !tbaa !31
  %89 = getelementptr inbounds nuw %struct._ir_insn, ptr %88, i32 0, i32 0
  %90 = getelementptr inbounds nuw %struct.anon, ptr %89, i32 0, i32 1
  %91 = load i32, ptr %90, align 4, !tbaa !46
  %92 = call zeroext i1 @ir_may_promote_f2d(ptr noundef %87, i32 noundef %91)
  br label %93

93:                                               ; preds = %86, %76
  %94 = phi i1 [ false, %76 ], [ %92, %86 ]
  store i1 %94, ptr %3, align 1
  store i32 1, ptr %7, align 4
  br label %124

95:                                               ; preds = %57, %57, %57, %57, %57
  %96 = load ptr, ptr %4, align 8, !tbaa !4
  %97 = getelementptr inbounds nuw %struct._ir_ctx, ptr %96, i32 0, i32 13
  %98 = load ptr, ptr %97, align 8, !tbaa !47
  %99 = load i32, ptr %5, align 4, !tbaa !33
  %100 = sext i32 %99 to i64
  %101 = getelementptr inbounds %struct._ir_use_list, ptr %98, i64 %100
  %102 = getelementptr inbounds nuw %struct._ir_use_list, ptr %101, i32 0, i32 1
  %103 = load i32, ptr %102, align 4, !tbaa !48
  %104 = icmp eq i32 %103, 1
  br i1 %104, label %105, label %119

105:                                              ; preds = %95
  %106 = load ptr, ptr %4, align 8, !tbaa !4
  %107 = load ptr, ptr %6, align 8, !tbaa !31
  %108 = getelementptr inbounds nuw %struct._ir_insn, ptr %107, i32 0, i32 0
  %109 = getelementptr inbounds nuw %struct.anon, ptr %108, i32 0, i32 1
  %110 = load i32, ptr %109, align 4, !tbaa !46
  %111 = call zeroext i1 @ir_may_promote_f2d(ptr noundef %106, i32 noundef %110)
  br i1 %111, label %112, label %119

112:                                              ; preds = %105
  %113 = load ptr, ptr %4, align 8, !tbaa !4
  %114 = load ptr, ptr %6, align 8, !tbaa !31
  %115 = getelementptr inbounds nuw %struct._ir_insn, ptr %114, i32 0, i32 1
  %116 = getelementptr inbounds nuw %struct.anon.6, ptr %115, i32 0, i32 0
  %117 = load i32, ptr %116, align 8, !tbaa !46
  %118 = call zeroext i1 @ir_may_promote_f2d(ptr noundef %113, i32 noundef %117)
  br label %119

119:                                              ; preds = %112, %105, %95
  %120 = phi i1 [ false, %105 ], [ false, %95 ], [ %118, %112 ]
  store i1 %120, ptr %3, align 1
  store i32 1, ptr %7, align 4
  br label %124

121:                                              ; preds = %57
  br label %122

122:                                              ; preds = %121
  br label %123

123:                                              ; preds = %122
  store i1 false, ptr %3, align 1
  store i32 1, ptr %7, align 4
  br label %124

124:                                              ; preds = %123, %119, %93, %66, %65, %55
  call void @llvm.lifetime.end.p0(i64 8, ptr %6) #10
  %125 = load i1, ptr %3, align 1
  ret i1 %125
}