; Function Attrs: nofree nosync nounwind memory(read, inaccessiblemem: none) uwtable
define internal fastcc zeroext i1 @ir_may_promote_f2d(ptr noundef readonly captures(none) %0, i32 noundef %1) unnamed_addr #8 {
  %3 = load ptr, ptr %0, align 8, !tbaa !38
  %4 = sext i32 %1 to i64
  %5 = getelementptr inbounds %struct._ir_insn, ptr %3, i64 %4
  %6 = icmp slt i32 %1, 0
  br i1 %6, label %tailrecurse._crit_edge, label %.lr.ph

.lr.ph:                                           ; preds = %2
  %7 = getelementptr inbounds nuw i8, ptr %0, i64 72
  br label %13

tailrecurse._crit_edge:                           ; preds = %tailrecurse.backedge, %2
  %.lcssa = phi ptr [ %5, %2 ], [ %29, %tailrecurse.backedge ]
  %8 = load i8, ptr %.lcssa, align 8, !tbaa !39
  %.off = add i8 %8, -66
  %switch = icmp ult i8 %.off, 3
  br i1 %switch, label %.loopexit, label %9

9:                                                ; preds = %tailrecurse._crit_edge
  %10 = getelementptr inbounds nuw i8, ptr %.lcssa, i64 8
  %11 = load float, ptr %10, align 8, !tbaa !39
  %12 = fcmp ord float %11, 0.000000e+00
  br label %.loopexit

13:                                               ; preds = %.lr.ph, %tailrecurse.backedge
  %14 = phi ptr [ %5, %.lr.ph ], [ %29, %tailrecurse.backedge ]
  %15 = phi i64 [ %4, %.lr.ph ], [ %28, %tailrecurse.backedge ]
  %16 = load i8, ptr %14, align 8, !tbaa !39
  switch i8 %16, label %.loopexit [
    i8 37, label %.loopexit.loopexit
    i8 35, label %17
    i8 29, label %22
    i8 30, label %22
    i8 24, label %31
    i8 25, label %31
    i8 26, label %31
    i8 56, label %31
    i8 57, label %31
  ]

17:                                               ; preds = %13
  %18 = load ptr, ptr %7, align 8, !tbaa !41
  %19 = getelementptr inbounds nuw %struct._ir_use_list, ptr %18, i64 %15, i32 1
  %20 = load i32, ptr %19, align 4, !tbaa !42
  %21 = icmp eq i32 %20, 1
  br label %.loopexit

22:                                               ; preds = %13, %13
  %23 = load ptr, ptr %7, align 8, !tbaa !41
  %24 = getelementptr inbounds nuw %struct._ir_use_list, ptr %23, i64 %15, i32 1
  %25 = load i32, ptr %24, align 4, !tbaa !42
  %26 = icmp eq i32 %25, 1
  br i1 %26, label %tailrecurse.backedge, label %.loopexit

tailrecurse.backedge:                             ; preds = %22, %36
  %.sink = phi i64 [ 8, %36 ], [ 4, %22 ]
  %27 = getelementptr inbounds nuw i8, ptr %14, i64 %.sink
  %.tr22.be = load i32, ptr %27, align 4, !tbaa !39
  %28 = sext i32 %.tr22.be to i64
  %29 = getelementptr inbounds %struct._ir_insn, ptr %3, i64 %28
  %30 = icmp slt i32 %.tr22.be, 0
  br i1 %30, label %tailrecurse._crit_edge, label %13

31:                                               ; preds = %13, %13, %13, %13, %13
  %32 = load ptr, ptr %7, align 8, !tbaa !41
  %33 = getelementptr inbounds nuw %struct._ir_use_list, ptr %32, i64 %15, i32 1
  %34 = load i32, ptr %33, align 4, !tbaa !42
  %35 = icmp eq i32 %34, 1
  br i1 %35, label %36, label %.loopexit

36:                                               ; preds = %31
  %37 = getelementptr inbounds nuw i8, ptr %14, i64 4
  %38 = load i32, ptr %37, align 4, !tbaa !39
  %39 = tail call fastcc zeroext i1 @ir_may_promote_f2d(ptr noundef nonnull %0, i32 noundef %38)
  br i1 %39, label %tailrecurse.backedge, label %.loopexit

.loopexit.loopexit:                               ; preds = %13
  br label %.loopexit

.loopexit:                                        ; preds = %31, %36, %22, %13, %.loopexit.loopexit, %tailrecurse._crit_edge, %9, %17
  %.0 = phi i1 [ %21, %17 ], [ %12, %9 ], [ false, %tailrecurse._crit_edge ], [ true, %.loopexit.loopexit ], [ false, %13 ], [ false, %22 ], [ false, %36 ], [ false, %31 ]
  ret i1 %.0
}